target datalayout = "e-m:e-p270:32:32-p271:32:32-p272:64:64-i64:64-i128:128-f80:128-n8:16:32:64-S128"
target triple = "x86_64-unknown-linux-gnu"

%"class.sat::literal" = type { i32 }
%class.symbol = type { ptr }
%"class.smt::theory_seq::solution_map" = type { ptr, ptr, %class.svector, %"class.smt::theory_seq::eval_cache", %class.ref_vector, %class.ref_vector, %class.ptr_vector.1, %class.svector.3, %class.svector.5 }
%class.svector = type { %class.vector }
%class.vector = type { ptr }
%"class.smt::theory_seq::eval_cache" = type { %class.svector, %class.ref_vector }
%class.ref_vector = type { %class.ref_vector_core }
%class.ref_vector_core = type { %class.ref_manager_wrapper, %class.ptr_vector }
%class.ref_manager_wrapper = type { ptr }
%class.ptr_vector = type { %class.vector.0 }
%class.vector.0 = type { ptr }
%class.ptr_vector.1 = type { %class.vector.2 }
%class.vector.2 = type { ptr }
%class.svector.3 = type { %class.vector.4 }
%class.vector.4 = type { ptr }
%class.svector.5 = type { %class.vector.6 }
%class.vector.6 = type { ptr }
%class.scoped_dependency_manager = type { %"class.scoped_dependency_manager<smt::theory_seq::assumption>::config::value_manager", %"class.scoped_dependency_manager<smt::theory_seq::assumption>::config::allocator", %class.dependency_manager }
%"class.scoped_dependency_manager<smt::theory_seq::assumption>::config::value_manager" = type { i8 }
%"class.scoped_dependency_manager<smt::theory_seq::assumption>::config::allocator" = type { %class.region }
%class.region = type { ptr, ptr, ptr, ptr, ptr }
%class.dependency_manager = type { ptr, ptr, %class.ptr_vector.1 }
%"class.smt::theory_seq::exclusion_table" = type { ptr, %class.obj_pair_hashtable, %class.ref_vector, %class.ref_vector, %class.svector.5 }
%class.obj_pair_hashtable = type { %class.core_hashtable.base.37, [4 x i8] }
%class.core_hashtable.base.37 = type <{ ptr, i32, i32, i32 }>
%class.params_ref = type { ptr }
%"class.smt::theory_seq" = type { %"class.smt::theory.base", %"class.seq::eq_solver_context", %class.scoped_dependency_manager, %"class.smt::theory_seq::solution_map", %class.scoped_vector, %class.scoped_vector.41, %class.scoped_vector.43, %class.scoped_vector.45, %class.scoped_vector.45, i8, i32, %class.union_find, %"class.smt::seq_offset_eq", %class.obj_ref_map, %class.obj_ref_map, ptr, %"class.smt::theory_seq::exclusion_table", %class.ref_vector, %class.obj_hashtable.60, i32, i8, %class.ref_vector, %class.ref_vector, %class.obj_hashtable.60, %class.obj_hashtable.60, %class.ref_vector, %class.obj_map.66, %class.ref_vector, %class.scoped_ptr_vector, ptr, %class.th_rewriter, %class.th_rewriter, %class.seq_rewriter, %class.seq_util, %class.arith_util, %"class.seq::skolem", %"class.smt::seq_axioms", %"class.seq::eq_solver", %"class.smt::seq_regex", %"class.smt::arith_value", %class.trail_stack, %"struct.smt::theory_seq::stats", %class.ptr_vector, %class.ptr_vector, %class.ref_vector, %class.ref_vector, %class.ref_vector, %class.ref_vector, %class.ref_pair_vector, i32, %"class.sat::literal", ptr, i8, i8, i8, [5 x i8], %class.obj_hashtable.60, %class.obj_hashtable.60, ptr, %class.obj_pair_hashtable, %class.scoped_ptr_vector.104, %class.u_map, %class.ptr_vector }
%"class.smt::theory.base" = type <{ ptr, i32, [4 x i8], ptr, ptr, %class.ptr_vector.38, %class.svector.5, i32, i8 }>
%class.ptr_vector.38 = type { %class.vector.39 }
%class.vector.39 = type { ptr }
%"class.seq::eq_solver_context" = type { ptr }
%class.scoped_vector = type { i32, i32, %class.svector.5, %class.vector.40, %class.svector.5, %class.svector.5, %class.svector.5, %class.svector.5, %class.svector.5 }
%class.vector.40 = type { ptr }
%class.scoped_vector.41 = type { i32, i32, %class.svector.5, %class.vector.42, %class.svector.5, %class.svector.5, %class.svector.5, %class.svector.5, %class.svector.5 }
%class.vector.42 = type { ptr }
%class.scoped_vector.43 = type { i32, i32, %class.svector.5, %class.vector.44, %class.svector.5, %class.svector.5, %class.svector.5, %class.svector.5, %class.svector.5 }
%class.vector.44 = type { ptr }
%class.scoped_vector.45 = type { i32, i32, %class.svector.5, %class.vector.46, %class.svector.5, %class.svector.5, %class.svector.5, %class.svector.5, %class.svector.5 }
%class.vector.46 = type { ptr }
%class.union_find = type { ptr, ptr, %class.svector.5, %class.svector.5, %class.svector.5, %"class.union_find<smt::theory_seq>::mk_var_trail" }
%"class.union_find<smt::theory_seq>::mk_var_trail" = type { %class.trail, ptr }
%class.trail = type { ptr }
%"class.smt::seq_offset_eq" = type <{ ptr, ptr, %class.seq_util, %class.arith_util, %class.obj_hashtable, %class.obj_pair_map, i32, [4 x i8] }>
%class.obj_hashtable = type { %class.core_hashtable.base.50, [4 x i8] }
%class.core_hashtable.base.50 = type <{ ptr, i32, i32, i32 }>
%class.obj_pair_map = type { %class.core_hashtable.51 }
%class.core_hashtable.51 = type <{ ptr, i32, i32, i32, [4 x i8] }>
%class.obj_ref_map = type { ptr, %class.obj_map.55 }
%class.obj_map.55 = type { %class.core_hashtable.56 }
%class.core_hashtable.56 = type <{ ptr, i32, i32, i32, [4 x i8] }>
%class.obj_map.66 = type { %class.core_hashtable.67 }
%class.core_hashtable.67 = type <{ ptr, i32, i32, i32, [4 x i8] }>
%class.scoped_ptr_vector = type { %class.ptr_vector.71 }
%class.ptr_vector.71 = type { %class.vector.72 }
%class.vector.72 = type { ptr }
%class.th_rewriter = type { ptr, %class.params_ref }
%class.seq_rewriter = type <{ %class.seq_util, %class.arith_util, %class.bool_rewriter, %class.re2automaton, %"class.seq_rewriter::op_cache", %class.ref_vector, %class.ref_vector, %class.ref_vector, i8, [7 x i8] }>
%class.bool_rewriter = type { ptr, i8, i8, i8, i8, i8, i8, i32, i8, i32, i32, i8, %class.ptr_vector, %class.ptr_vector, %class.svector.5, %class.svector.5 }
%class.re2automaton = type { ptr, %class.sym_expr_manager, %class.seq_util, %class.scoped_ptr, %class.scoped_ptr.73, %class.scoped_ptr.74 }
%class.sym_expr_manager = type { i8 }
%class.scoped_ptr = type { ptr }
%class.scoped_ptr.73 = type { ptr }
%class.scoped_ptr.74 = type { ptr }
%"class.seq_rewriter::op_cache" = type { i32, %class.ref_vector, %class.hashtable }
%class.hashtable = type { %class.core_hashtable.base.76, [4 x i8] }
%class.core_hashtable.base.76 = type <{ ptr, i32, i32, i32 }>
%class.seq_util = type { ptr, ptr, ptr, i32, [4 x i8], %"class.seq_util::str", %"class.seq_util::rex" }
%"class.seq_util::str" = type <{ ptr, ptr, i32, [4 x i8] }>
%"class.seq_util::rex" = type { ptr, ptr, i32, %class.vector.47, %class.ref_vector, %"struct.seq_util::rex::info", %"struct.seq_util::rex::info" }
%class.vector.47 = type { ptr }
%"struct.seq_util::rex::info" = type { i32, i8, i32, i32 }
%class.arith_util = type { ptr, ptr }
%"class.seq::skolem" = type { ptr, ptr, %class.seq_util, %class.arith_util, %class.symbol, %class.symbol, %class.symbol, %class.symbol, %class.symbol, %class.symbol, %class.symbol, %class.symbol, %class.symbol, %class.symbol, %class.symbol, %class.symbol, %class.symbol, %class.symbol, %class.symbol, %class.symbol, %class.symbol, %class.symbol, %class.symbol, %class.symbol, %class.symbol }
%"class.smt::seq_axioms" = type { ptr, ptr, ptr, %class.arith_util, %class.seq_util, %"class.seq::skolem", %"class.seq::axioms", i8, %"class.std::function.87", %"class.std::function.89" }
%"class.seq::axioms" = type { ptr, ptr, %class.arith_util, %class.seq_util, %"class.seq::skolem", %class.ref_vector, %class.ref_vector, %class.obj_map.77, %"class.std::function", %"class.std::function.82", %"class.std::function.85" }
%class.obj_map.77 = type { %class.core_hashtable.78 }
%class.core_hashtable.78 = type <{ ptr, i32, i32, i32, [4 x i8] }>
%"class.std::function" = type { %"class.std::_Function_base", ptr }
%"class.std::_Function_base" = type { %"union.std::_Any_data", ptr }
%"union.std::_Any_data" = type { %"union.std::_Nocopy_types" }
%"union.std::_Nocopy_types" = type { { i64, i64 } }
%"class.std::function.82" = type { %"class.std::_Function_base", ptr }
%"class.std::function.85" = type { %"class.std::_Function_base", ptr }
%"class.std::function.87" = type { %"class.std::_Function_base", ptr }
%"class.std::function.89" = type { %"class.std::_Function_base", ptr }
%"class.seq::eq_solver" = type { ptr, ptr, ptr, %class.arith_util, %class.seq_util, %class.ref_vector, %class.ptr_vector }
%"class.smt::seq_regex" = type <{ ptr, ptr, ptr, %class.vector.91, %class.ptr_addr_map, %class.ref_vector, %class.state_graph, i32, [4 x i8] }>
%class.vector.91 = type { ptr }
%class.ptr_addr_map = type { %class.table2map.92 }
%class.table2map.92 = type { %class.core_hashtable.93 }
%class.core_hashtable.93 = type <{ ptr, i32, i32, i32, [4 x i8] }>
%class.state_graph = type { %class.uint_set, %class.uint_set, %class.uint_set, %class.uint_set, %class.uint_set, %class.basic_union_find, %class.u_map.95, %class.u_map.95, %class.u_map.95, %"struct.state_graph::state_pp" }
%class.uint_set = type { %class.svector.5 }
%class.basic_union_find = type { %class.svector.5, %class.svector.5, %class.svector.5 }
%class.u_map.95 = type { %class.map.96 }
%class.map.96 = type { %class.table2map.97 }
%class.table2map.97 = type { %class.core_hashtable.98 }
%class.core_hashtable.98 = type <{ ptr, i32, i32, i32, [4 x i8] }>
%"struct.state_graph::state_pp" = type { ptr, ptr }
%"class.smt::arith_value" = type { ptr, ptr, %class.arith_util, %class.bv_util, ptr, ptr, ptr, ptr }
%class.bv_util = type { %class.bv_recognizers, ptr, ptr }
%class.bv_recognizers = type { i32 }
%class.trail_stack = type { %class.ptr_vector.100, %class.svector.5, %class.region }
%class.ptr_vector.100 = type { %class.vector.101 }
%class.vector.101 = type { ptr }
%"struct.smt::theory_seq::stats" = type { i32, i32, i32, i32, i32, i32, i32, i32, i32, i32, i32, i32, i32 }
%class.ref_pair_vector = type { %class.ref_pair_vector_core }
%class.ref_pair_vector_core = type { %class.ref_manager_wrapper, %class.svector.102 }
%class.svector.102 = type { %class.vector.103 }
%class.vector.103 = type { ptr }
%class.obj_hashtable.60 = type { %class.core_hashtable.base.64, [4 x i8] }
%class.core_hashtable.base.64 = type <{ ptr, i32, i32, i32 }>
%class.scoped_ptr_vector.104 = type { %class.ptr_vector.105 }
%class.ptr_vector.105 = type { %class.vector.106 }
%class.vector.106 = type { ptr }
%class.u_map = type { %class.map }
%class.map = type { %class.table2map }
%class.table2map = type { %class.core_hashtable.28 }
%class.core_hashtable.28 = type <{ ptr, i32, i32, i32, [4 x i8] }>
%class.obj_ref = type { ptr, ptr }
%class.obj_map = type { %class.core_hashtable.26 }
%class.core_hashtable.26 = type <{ ptr, i32, i32, i32, [4 x i8] }>
%class.ptr_vector.19 = type { %class.vector.20 }
%class.vector.20 = type { ptr }
%class.svector.12 = type { %class.vector.13 }
%class.vector.13 = type { ptr }
%class.svector.7 = type { %class.vector.8 }
%class.vector.8 = type { ptr }
%class.obj_map.30 = type { %class.core_hashtable.31 }
%class.core_hashtable.31 = type <{ ptr, i32, i32, i32, [4 x i8] }>
%class.ast_manager = type { %class.reslimit, %class.small_object_allocator, %class.family_manager, %class.parray_manager, %class.dependency_manager.18, %class.parray_manager.21, %class.ptr_vector.24, i32, i8, %class.ast_table, %class.obj_map, %class.id_gen, %class.id_gen, ptr, ptr, ptr, ptr, ptr, i32, i8, [3 x i8], %class.u_map, ptr, i8, i8, ptr, %class.symbol, %class.obj_map.30, ptr }
%class.reslimit = type { %"struct.std::atomic", i8, i64, i64, %class.svector.7, %class.ptr_vector.9 }
%"struct.std::atomic" = type { %"struct.std::__atomic_base" }
%"struct.std::__atomic_base" = type { i32 }
%class.ptr_vector.9 = type { %class.vector.10 }
%class.vector.10 = type { ptr }
%class.small_object_allocator = type { [32 x ptr], [32 x ptr], i64 }
%class.family_manager = type { i32, %class.symbol_table, %class.svector.14 }
%class.symbol_table = type { %class.core_hashtable, %class.vector.11, %class.svector.12 }
%class.core_hashtable = type <{ ptr, i32, i32, i32, [4 x i8] }>
%class.vector.11 = type { ptr }
%class.svector.14 = type { %class.vector.15 }
%class.vector.15 = type { ptr }
%class.parray_manager = type { ptr, ptr, %class.ptr_vector.16, %class.ptr_vector.16 }
%class.ptr_vector.16 = type { %class.vector.17 }
%class.vector.17 = type { ptr }
%class.dependency_manager.18 = type { ptr, ptr, %class.ptr_vector.19 }
%class.parray_manager.21 = type { ptr, ptr, %class.ptr_vector.22, %class.ptr_vector.22 }
%class.ptr_vector.22 = type { %class.vector.23 }
%class.vector.23 = type { ptr }
%class.ptr_vector.24 = type { %class.vector.25 }
%class.vector.25 = type { ptr }
%class.ast_table = type { %class.chashtable }
%class.chashtable = type { ptr, i32, i32, i32, i32, i32, i32, i32, ptr, ptr, ptr }
%class.id_gen = type { i32, %class.svector.5 }

; Function Attrs: mustprogress nounwind uwtable
define linkonce_odr hidden noundef ptr @_ZNK11ast_manager12mk_bool_sortEv(ptr noundef nonnull align 8 dereferenceable(976) %this) #4 comdat align 2 {
entry:
  %this.addr = alloca ptr, align 8
  store ptr %this, ptr %this.addr, align 8
  %this1 = load ptr, ptr %this.addr, align 8
  %m_bool_sort = getelementptr inbounds %class.ast_manager, ptr %this1, i32 0, i32 13
  %0 = load ptr, ptr %m_bool_sort, align 8
  ret ptr %0
}

; Function Attrs: mustprogress nounwind uwtable
define linkonce_odr hidden noundef ptr @_ZNK7obj_refI4expr11ast_managerEcvPS0_Ev(ptr noundef nonnull align 8 dereferenceable(16) %this) #4 comdat align 2 {
entry:
  %this.addr = alloca ptr, align 8
  store ptr %this, ptr %this.addr, align 8
  %this1 = load ptr, ptr %this.addr, align 8
  %m_obj = getelementptr inbounds %class.obj_ref, ptr %this1, i32 0, i32 0
  %0 = load ptr, ptr %m_obj, align 8
  ret ptr %0
}

; Function Attrs: mustprogress uwtable
define linkonce_odr hidden void @_ZN3seq6skolem5mk_eqEP4exprS2_(ptr noalias sret(%class.obj_ref) align 8 %agg.result, ptr noundef nonnull align 8 dereferenceable(336) %this, ptr noundef %a, ptr noundef %b) #5 comdat align 2 {
entry:
  %result.ptr = alloca ptr, align 8
  %this.addr = alloca ptr, align 8
  %a.addr = alloca ptr, align 8
  %b.addr = alloca ptr, align 8
  store ptr %agg.result, ptr %result.ptr, align 8
  store ptr %this, ptr %this.addr, align 8
  store ptr %a, ptr %a.addr, align 8
  store ptr %b, ptr %b.addr, align 8
  %this1 = load ptr, ptr %this.addr, align 8
  %m_eq = getelementptr inbounds %"class.seq::skolem", ptr %this1, i32 0, i32 22
  %0 = load ptr, ptr %a.addr, align 8
  %1 = load ptr, ptr %b.addr, align 8
  %m = getelementptr inbounds %"class.seq::skolem", ptr %this1, i32 0, i32 0
  %2 = load ptr, ptr %m, align 8
  %call = call noundef ptr @_ZNK11ast_manager12mk_bool_sortEv(ptr noundef nonnull align 8 dereferenceable(976) %2)
  call void @_ZN3seq6skolem2mkERK6symbolP4exprS5_S5_S5_P4sortb(ptr sret(%class.obj_ref) align 8 %agg.result, ptr noundef nonnull align 8 dereferenceable(336) %this1, ptr noundef nonnull align 8 dereferenceable(8) %m_eq, ptr noundef %0, ptr noundef %1, ptr noundef null, ptr noundef null, ptr noundef %call, i1 noundef zeroext true)
  ret void
}

; Function Attrs: mustprogress uwtable
define hidden i32 @_ZN3smt10theory_seq9mk_seq_eqEP4exprS2_(ptr noundef nonnull align 8 dereferenceable(4328) %this, ptr noundef %a, ptr noundef %b) #5 align 2 personality ptr @__gxx_personality_v0 {
entry:
  %retval = alloca %"class.sat::literal", align 4
  %this.addr = alloca ptr, align 8
  %a.addr = alloca ptr, align 8
  %b.addr = alloca ptr, align 8
  %ref.tmp = alloca %class.obj_ref, align 8
  %exn.slot = alloca ptr, align 8
  %ehselector.slot = alloca i32, align 4
  store ptr %this, ptr %this.addr, align 8
  store ptr %a, ptr %a.addr, align 8
  store ptr %b, ptr %b.addr, align 8
  %this1 = load ptr, ptr %this.addr, align 8
  %m_sk = getelementptr inbounds %"class.smt::theory_seq", ptr %this1, i32 0, i32 35
  %0 = load ptr, ptr %a.addr, align 8
  %1 = load ptr, ptr %b.addr, align 8
  call void @_ZN3seq6skolem5mk_eqEP4exprS2_(ptr sret(%class.obj_ref) align 8 %ref.tmp, ptr noundef nonnull align 8 dereferenceable(336) %m_sk, ptr noundef %0, ptr noundef %1)
  %call = invoke noundef ptr @_ZNK7obj_refI4expr11ast_managerEcvPS0_Ev(ptr noundef nonnull align 8 dereferenceable(16) %ref.tmp)
          to label %invoke.cont unwind label %lpad

invoke.cont:                                      ; preds = %entry
  %call3 = invoke i32 @_ZN3smt6theory10mk_literalEP4expr(ptr noundef nonnull align 8 dereferenceable(53) %this1, ptr noundef %call)
          to label %invoke.cont2 unwind label %lpad

invoke.cont2:                                     ; preds = %invoke.cont
  %coerce.dive = getelementptr inbounds %"class.sat::literal", ptr %retval, i32 0, i32 0
  store i32 %call3, ptr %coerce.dive, align 4
  call void @_ZN7obj_refI4expr11ast_managerED2Ev(ptr noundef nonnull align 8 dereferenceable(16) %ref.tmp) #3
  %coerce.dive4 = getelementptr inbounds %"class.sat::literal", ptr %retval, i32 0, i32 0
  %2 = load i32, ptr %coerce.dive4, align 4
  ret i32 %2

lpad:                                             ; preds = %invoke.cont, %entry
  %3 = landingpad { ptr, i32 }
          cleanup
  %4 = extractvalue { ptr, i32 } %3, 0
  store ptr %4, ptr %exn.slot, align 8
  %5 = extractvalue { ptr, i32 } %3, 1
  store i32 %5, ptr %ehselector.slot, align 4
  call void @_ZN7obj_refI4expr11ast_managerED2Ev(ptr noundef nonnull align 8 dereferenceable(16) %ref.tmp) #3
  br label %eh.resume

eh.resume:                                        ; preds = %lpad
  %exn = load ptr, ptr %exn.slot, align 8
  %sel = load i32, ptr %ehselector.slot, align 4
  %lpad.val = insertvalue { ptr, i32 } poison, ptr %exn, 0
  %lpad.val5 = insertvalue { ptr, i32 } %lpad.val, i32 %sel, 1
  resume { ptr, i32 } %lpad.val5
}